; Function Attrs: mustprogress uwtable
define void @_ZN7mitsuba9ArgParser3Arg6appendERKNSt3__112basic_stringIcNS2_11char_traitsIcEENS2_9allocatorIcEEEE(ptr noundef nonnull align 8 dereferenceable(64) %0, ptr noundef nonnull align 8 dereferenceable(24) %1) local_unnamed_addr #0 align 2 personality ptr @__gxx_personality_v0 {
  %3 = getelementptr inbounds i8, ptr %0, i64 25
  %4 = load i8, ptr %3, align 1
  %5 = and i8 %4, 1
  %.not10 = icmp eq i8 %5, 0
  br i1 %.not10, label %tailrecurse._crit_edge, label %.lr.ph

.lr.ph:                                           ; preds = %2, %tailrecurse
  %.tr11 = phi ptr [ %26, %tailrecurse ], [ %0, %2 ]
  %6 = getelementptr inbounds i8, ptr %.tr11, i64 32
  %7 = load ptr, ptr %6, align 8
  %.not4 = icmp eq ptr %7, null
  br i1 %.not4, label %8, label %tailrecurse

8:                                                ; preds = %.lr.ph
  %9 = tail call noalias noundef nonnull dereferenceable(64) ptr @_Znwm(i64 noundef 64) #16
  tail call void @llvm.memset.p0.i64(ptr noundef nonnull align 8 dereferenceable(24) %9, i8 0, i64 24, i1 false)
  %10 = load ptr, ptr %.tr11, align 8
  %11 = getelementptr inbounds i8, ptr %.tr11, i64 8
  %12 = load ptr, ptr %11, align 8
  %13 = ptrtoint ptr %12 to i64
  %14 = ptrtoint ptr %10 to i64
  %15 = sub i64 %13, %14
  %16 = sdiv exact i64 %15, 24
  invoke void @_ZNSt3__16vectorINS_12basic_stringIcNS_11char_traitsIcEENS_9allocatorIcEEEENS4_IS6_EEE16__init_with_sizeB8ne190000IPS6_SA_EEvT_T0_m(ptr noundef nonnull align 8 dereferenceable(24) %9, ptr noundef %10, ptr noundef %12, i64 noundef %16)
          to label %17 unwind label %24

17:                                               ; preds = %8
  %18 = getelementptr inbounds i8, ptr %9, i64 24
  %19 = getelementptr inbounds i8, ptr %.tr11, i64 24
  %20 = load i8, ptr %19, align 8
  %21 = and i8 %20, 1
  store i8 %21, ptr %18, align 8
  %22 = getelementptr inbounds i8, ptr %9, i64 25
  store i8 0, ptr %22, align 1
  %23 = getelementptr inbounds i8, ptr %9, i64 32
  tail call void @llvm.memset.p0.i64(ptr noundef nonnull align 8 dereferenceable(32) %23, i8 0, i64 32, i1 false)
  store ptr %9, ptr %6, align 8
  br label %tailrecurse

24:                                               ; preds = %8
  %25 = landingpad { ptr, i32 }
          cleanup
  tail call void @_ZdlPv(ptr noundef nonnull %9) #17
  resume { ptr, i32 } %25

tailrecurse:                                      ; preds = %17, %.lr.ph
  %26 = phi ptr [ %9, %17 ], [ %7, %.lr.ph ]
  %27 = getelementptr inbounds i8, ptr %26, i64 25
  %28 = load i8, ptr %27, align 1
  %29 = and i8 %28, 1
  %.not = icmp eq i8 %29, 0
  br i1 %.not, label %tailrecurse._crit_edge, label %.lr.ph

tailrecurse._crit_edge:                           ; preds = %tailrecurse, %2
  %.tr.lcssa9 = phi ptr [ %0, %2 ], [ %26, %tailrecurse ]
  %30 = getelementptr inbounds i8, ptr %.tr.lcssa9, i64 25
  store i8 1, ptr %30, align 1
  %31 = getelementptr inbounds i8, ptr %.tr.lcssa9, i64 40
  %32 = tail call noundef nonnull align 8 dereferenceable(24) ptr @_ZNSt3__112basic_stringIcNS_11char_traitsIcEENS_9allocatorIcEEEaSERKS5_(ptr noundef nonnull align 8 dereferenceable(24) %31, ptr noundef nonnull align 8 dereferenceable(24) %1)
  ret void
}